target datalayout = "e-m:e-p270:32:32-p271:32:32-p272:64:64-i64:64-i128:128-f80:128-n8:16:32:64-S128"
target triple = "x86_64-pc-linux-gnu"

%"class.cv::Mat" = type { i32, i32, i32, i32, ptr, ptr, ptr, ptr, ptr, ptr, %"struct.cv::MatSize", %"struct.cv::MatStep" }
%"struct.cv::MatSize" = type { ptr }
%"struct.cv::MatStep" = type { ptr, [2 x i64] }
%"struct.cv::ml::TreeParams" = type <{ i8, i8, i8, [5 x i8], %"class.cv::Mat", i32, i32, i32, i32, float, [4 x i8] }>
%"class.std::vector.5" = type { %"struct.std::_Vector_base.6" }
%"struct.std::_Vector_base.6" = type { %"struct.std::_Vector_base<int, std::allocator<int>>::_Vector_impl" }
%"struct.std::_Vector_base<int, std::allocator<int>>::_Vector_impl" = type { %"struct.std::_Vector_base<int, std::allocator<int>>::_Vector_impl_data" }
%"struct.std::_Vector_base<int, std::allocator<int>>::_Vector_impl_data" = type { ptr, ptr, ptr }
%"class.std::__shared_count" = type { ptr }
%"class.cv::ml::DTreesImpl" = type { %"class.cv::ml::DTrees", %"struct.cv::ml::TreeParams", %"class.std::vector.5", %"class.std::vector.5", %"class.std::vector.18", %"class.std::vector.23", %"class.std::vector.5", %"class.std::vector.5", %"class.std::vector.28", %"class.std::vector.33", %"class.std::vector.5", %"class.std::vector.5", %"class.std::vector.38", %"class.std::vector.5", i8, %"struct.cv::Ptr.43" }
%"class.cv::ml::DTrees" = type { %"class.cv::ml::StatModel" }
%"class.cv::ml::StatModel" = type { %"class.cv::Algorithm" }
%"class.cv::Algorithm" = type { ptr }
%"class.std::vector.18" = type { %"struct.std::_Vector_base.19" }
%"struct.std::_Vector_base.19" = type { %"struct.std::_Vector_base<unsigned char, std::allocator<unsigned char>>::_Vector_impl" }
%"struct.std::_Vector_base<unsigned char, std::allocator<unsigned char>>::_Vector_impl" = type { %"struct.std::_Vector_base<unsigned char, std::allocator<unsigned char>>::_Vector_impl_data" }
%"struct.std::_Vector_base<unsigned char, std::allocator<unsigned char>>::_Vector_impl_data" = type { ptr, ptr, ptr }
%"class.std::vector.23" = type { %"struct.std::_Vector_base.24" }
%"struct.std::_Vector_base.24" = type { %"struct.std::_Vector_base<cv::Vec<int, 2>, std::allocator<cv::Vec<int, 2>>>::_Vector_impl" }
%"struct.std::_Vector_base<cv::Vec<int, 2>, std::allocator<cv::Vec<int, 2>>>::_Vector_impl" = type { %"struct.std::_Vector_base<cv::Vec<int, 2>, std::allocator<cv::Vec<int, 2>>>::_Vector_impl_data" }
%"struct.std::_Vector_base<cv::Vec<int, 2>, std::allocator<cv::Vec<int, 2>>>::_Vector_impl_data" = type { ptr, ptr, ptr }
%"class.std::vector.28" = type { %"struct.std::_Vector_base.29" }
%"struct.std::_Vector_base.29" = type { %"struct.std::_Vector_base<cv::ml::DTrees::Node, std::allocator<cv::ml::DTrees::Node>>::_Vector_impl" }
%"struct.std::_Vector_base<cv::ml::DTrees::Node, std::allocator<cv::ml::DTrees::Node>>::_Vector_impl" = type { %"struct.std::_Vector_base<cv::ml::DTrees::Node, std::allocator<cv::ml::DTrees::Node>>::_Vector_impl_data" }
%"struct.std::_Vector_base<cv::ml::DTrees::Node, std::allocator<cv::ml::DTrees::Node>>::_Vector_impl_data" = type { ptr, ptr, ptr }
%"class.std::vector.33" = type { %"struct.std::_Vector_base.34" }
%"struct.std::_Vector_base.34" = type { %"struct.std::_Vector_base<cv::ml::DTrees::Split, std::allocator<cv::ml::DTrees::Split>>::_Vector_impl" }
%"struct.std::_Vector_base<cv::ml::DTrees::Split, std::allocator<cv::ml::DTrees::Split>>::_Vector_impl" = type { %"struct.std::_Vector_base<cv::ml::DTrees::Split, std::allocator<cv::ml::DTrees::Split>>::_Vector_impl_data" }
%"struct.std::_Vector_base<cv::ml::DTrees::Split, std::allocator<cv::ml::DTrees::Split>>::_Vector_impl_data" = type { ptr, ptr, ptr }
%"class.std::vector.38" = type { %"struct.std::_Vector_base.39" }
%"struct.std::_Vector_base.39" = type { %"struct.std::_Vector_base<float, std::allocator<float>>::_Vector_impl" }
%"struct.std::_Vector_base<float, std::allocator<float>>::_Vector_impl" = type { %"struct.std::_Vector_base<float, std::allocator<float>>::_Vector_impl_data" }
%"struct.std::_Vector_base<float, std::allocator<float>>::_Vector_impl_data" = type { ptr, ptr, ptr }
%"struct.cv::Ptr.43" = type { %"class.std::shared_ptr.44" }
%"class.std::shared_ptr.44" = type { %"class.std::__shared_ptr.45" }
%"class.std::__shared_ptr.45" = type { ptr, %"class.std::__shared_count" }

; Function Attrs: mustprogress nounwind uwtable
define linkonce_odr hidden noundef nonnull align 4 dereferenceable(4) ptr @_ZNKSt6vectorIiSaIiEEixEm(ptr noundef nonnull align 8 dereferenceable(24) %0, i64 noundef %1) #6 comdat align 2 {
  %3 = alloca ptr, align 8
  %4 = alloca i64, align 8
  store ptr %0, ptr %3, align 8, !tbaa !92
  store i64 %1, ptr %4, align 8, !tbaa !176
  %5 = load ptr, ptr %3, align 8
  %6 = getelementptr inbounds nuw %"struct.std::_Vector_base.6", ptr %5, i32 0, i32 0
  %7 = getelementptr inbounds nuw %"struct.std::_Vector_base<int, std::allocator<int>>::_Vector_impl_data", ptr %6, i32 0, i32 0
  %8 = load ptr, ptr %7, align 8, !tbaa !107
  %9 = load i64, ptr %4, align 8, !tbaa !176
  %10 = getelementptr inbounds nuw i32, ptr %8, i64 %9
  ret ptr %10
}

; Function Attrs: mustprogress uwtable
define hidden void @_ZNK2cv2ml10DTreesImpl5writeERNS_11FileStorageE(ptr noundef nonnull align 8 dereferenceable(448) %0, ptr noundef nonnull align 8 dereferenceable(64) %1) unnamed_addr #4 align 2 {
  %3 = alloca ptr, align 8
  %4 = alloca ptr, align 8
  store ptr %0, ptr %3, align 8, !tbaa !117
  store ptr %1, ptr %4, align 8, !tbaa !352
  %5 = load ptr, ptr %3, align 8
  %6 = load ptr, ptr %4, align 8, !tbaa !352
  call void @_ZNK2cv9Algorithm11writeFormatERNS_11FileStorageE(ptr noundef nonnull align 8 dereferenceable(8) %5, ptr noundef nonnull align 8 dereferenceable(64) %6)
  %7 = load ptr, ptr %4, align 8, !tbaa !352
  %8 = load ptr, ptr %5, align 8, !tbaa !59
  %9 = getelementptr inbounds ptr, ptr %8, i64 57
  %10 = load ptr, ptr %9, align 8
  call void %10(ptr noundef nonnull align 8 dereferenceable(448) %5, ptr noundef nonnull align 8 dereferenceable(64) %7)
  %11 = load ptr, ptr %4, align 8, !tbaa !352
  %12 = getelementptr inbounds nuw %"class.cv::ml::DTreesImpl", ptr %5, i32 0, i32 7
  %13 = call noundef nonnull align 4 dereferenceable(4) ptr @_ZNKSt6vectorIiSaIiEEixEm(ptr noundef nonnull align 8 dereferenceable(24) %12, i64 noundef 0) #3
  %14 = load i32, ptr %13, align 4, !tbaa !28
  %15 = load ptr, ptr %5, align 8, !tbaa !59
  %16 = getelementptr inbounds ptr, ptr %15, i64 60
  %17 = load ptr, ptr %16, align 8
  call void %17(ptr noundef nonnull align 8 dereferenceable(448) %5, ptr noundef nonnull align 8 dereferenceable(64) %11, i32 noundef %14)
  ret void
}