; Function Attrs: mustprogress uwtable
define hidden void @_ZNK2cv2ml10DTreesImpl5writeERNS_11FileStorageE(ptr noundef nonnull align 8 dereferenceable(448) %0, ptr noundef nonnull align 8 dereferenceable(64) %1) unnamed_addr #3 align 2 {
  tail call void @_ZNK2cv9Algorithm11writeFormatERNS_11FileStorageE(ptr noundef nonnull align 8 dereferenceable(8) %0, ptr noundef nonnull align 8 dereferenceable(64) %1)
  %3 = load ptr, ptr %0, align 8, !tbaa !53
  %4 = getelementptr inbounds nuw i8, ptr %3, i64 456
  %5 = load ptr, ptr %4, align 8
  tail call void %5(ptr noundef nonnull align 8 dereferenceable(448) %0, ptr noundef nonnull align 8 dereferenceable(64) %1)
  %6 = getelementptr inbounds nuw i8, ptr %0, i64 256
  %7 = load ptr, ptr %6, align 8, !tbaa !67
  %8 = load i32, ptr %7, align 4, !tbaa !49
  %9 = load ptr, ptr %0, align 8, !tbaa !53
  %10 = getelementptr inbounds nuw i8, ptr %9, i64 480
  %11 = load ptr, ptr %10, align 8
  tail call void %11(ptr noundef nonnull align 8 dereferenceable(448) %0, ptr noundef nonnull align 8 dereferenceable(64) %1, i32 noundef %8)
  ret void
}